target datalayout = "e-m:e-p270:32:32-p271:32:32-p272:64:64-i64:64-i128:128-f80:128-n8:16:32:64-S128"
target triple = "x86_64-pc-linux-gnu"

%"class.OpenColorIO_v2_5dev::MixingSliderImpl" = type { %"class.OpenColorIO_v2_5dev::MixingSlider", ptr, float, float }
%"class.OpenColorIO_v2_5dev::MixingSlider" = type { ptr }

; Function Attrs: inlinehint mustprogress nounwind uwtable
define linkonce_odr noundef float @_ZSt3powff(float noundef %0, float noundef %1) #3 comdat {
  %3 = alloca float, align 4
  %4 = alloca float, align 4
  store float %0, ptr %3, align 4, !tbaa !20
  store float %1, ptr %4, align 4, !tbaa !20
  %5 = load float, ptr %3, align 4, !tbaa !20
  %6 = load float, ptr %4, align 4, !tbaa !20
  %7 = call float @powf(float noundef %5, float noundef %6) #20, !tbaa !123
  ret float %7
}

; Function Attrs: inlinehint mustprogress nounwind uwtable
define linkonce_odr noundef float @_ZSt5log10f(float noundef %0) #3 comdat {
  %2 = alloca float, align 4
  store float %0, ptr %2, align 4, !tbaa !20
  %3 = load float, ptr %2, align 4, !tbaa !20
  %4 = call float @log10f(float noundef %3) #20, !tbaa !123
  ret float %4
}

; Function Attrs: mustprogress uwtable
define internal noundef float @_ZN19OpenColorIO_v2_5dev12_GLOBAL__N_118linearToPerceptualEf(float noundef %0) #2 {
  %2 = alloca float, align 4
  %3 = alloca float, align 4
  store float %0, ptr %3, align 4, !tbaa !20
  %4 = load float, ptr %3, align 4, !tbaa !20
  %5 = fcmp ole float %4, 0.000000e+00
  br i1 %5, label %6, label %9

6:                                                ; preds = %1
  %7 = load float, ptr %3, align 4, !tbaa !20
  %8 = fmul float %7, 5.000000e-01
  store float %8, ptr %2, align 4
  br label %19

9:                                                ; preds = %1
  %10 = load float, ptr %3, align 4, !tbaa !20
  %11 = fcmp ogt float %10, 0x3FC70A3D80000000
  br i1 %11, label %12, label %16

12:                                               ; preds = %9
  %13 = load float, ptr %3, align 4, !tbaa !20
  %14 = call noundef float @_ZSt5log10f(float noundef %13)
  %15 = call float @llvm.fmuladd.f32(float %14, float 0x3FE19999A0000000, float 0x3FEAAF0400000000)
  store float %15, ptr %2, align 4
  br label %19

16:                                               ; preds = %9
  %17 = load float, ptr %3, align 4, !tbaa !20
  %18 = call noundef float @_ZSt3powff(float noundef %17, float noundef 5.000000e-01)
  store float %18, ptr %2, align 4
  br label %19

19:                                               ; preds = %16, %12, %6
  %20 = load float, ptr %2, align 4
  ret float %20
}

; Function Attrs: mustprogress nounwind uwtable
define hidden noundef float @_ZNK19OpenColorIO_v2_5dev16MixingSliderImpl14mixingToSliderEf(ptr noundef nonnull align 8 dereferenceable(24) %0, float noundef %1) unnamed_addr #0 align 2 personality ptr @__gxx_personality_v0 {
  %3 = alloca ptr, align 8
  %4 = alloca float, align 4
  %5 = alloca float, align 4
  %6 = alloca float, align 4
  store ptr %0, ptr %3, align 8, !tbaa !3
  store float %1, ptr %4, align 4, !tbaa !20
  %7 = load ptr, ptr %3, align 8
  call void @llvm.lifetime.start.p0(i64 4, ptr %5) #20
  %8 = getelementptr inbounds nuw %"class.OpenColorIO_v2_5dev::MixingSliderImpl", ptr %7, i32 0, i32 1
  %9 = load ptr, ptr %8, align 8, !tbaa !19
  %10 = load ptr, ptr %9, align 8, !tbaa !10
  %11 = getelementptr inbounds ptr, ptr %10, i64 5
  %12 = load ptr, ptr %11, align 8
  %13 = call noundef zeroext i1 %12(ptr noundef nonnull align 8 dereferenceable(8) %9) #20
  br i1 %13, label %18, label %14

14:                                               ; preds = %2
  %15 = load float, ptr %4, align 4, !tbaa !20
  %16 = invoke noundef float @_ZN19OpenColorIO_v2_5dev12_GLOBAL__N_118linearToPerceptualEf(float noundef %15)
          to label %17 unwind label %39

17:                                               ; preds = %14
  br label %20

18:                                               ; preds = %2
  %19 = load float, ptr %4, align 4, !tbaa !20
  br label %20

20:                                               ; preds = %18, %17
  %21 = phi float [ %16, %17 ], [ %19, %18 ]
  store float %21, ptr %5, align 4, !tbaa !20
  call void @llvm.lifetime.start.p0(i64 4, ptr %6) #20
  %22 = load float, ptr %5, align 4, !tbaa !20
  %23 = load ptr, ptr %7, align 8, !tbaa !10
  %24 = getelementptr inbounds ptr, ptr %23, i64 1
  %25 = load ptr, ptr %24, align 8
  %26 = call noundef float %25(ptr noundef nonnull align 8 dereferenceable(24) %7) #20
  %27 = fsub float %22, %26
  %28 = load ptr, ptr %7, align 8, !tbaa !10
  %29 = getelementptr inbounds ptr, ptr %28, i64 3
  %30 = load ptr, ptr %29, align 8
  %31 = call noundef float %30(ptr noundef nonnull align 8 dereferenceable(24) %7) #20
  %32 = load ptr, ptr %7, align 8, !tbaa !10
  %33 = getelementptr inbounds ptr, ptr %32, i64 1
  %34 = load ptr, ptr %33, align 8
  %35 = call noundef float %34(ptr noundef nonnull align 8 dereferenceable(24) %7) #20
  %36 = fsub float %31, %35
  %37 = fdiv float %27, %36
  store float %37, ptr %6, align 4, !tbaa !20
  %38 = load float, ptr %6, align 4, !tbaa !20
  call void @llvm.lifetime.end.p0(i64 4, ptr %6) #20
  call void @llvm.lifetime.end.p0(i64 4, ptr %5) #20
  ret float %38

39:                                               ; preds = %14
  %40 = landingpad { ptr, i32 }
          catch ptr null
  %41 = extractvalue { ptr, i32 } %40, 0
  call void @__clang_call_terminate(ptr %41) #21
  unreachable
}