; Function Attrs: mustprogress nounwind uwtable
define hidden noundef float @_ZNK19OpenColorIO_v2_5dev16MixingSliderImpl14mixingToSliderEf(ptr noundef nonnull align 8 dereferenceable(24) %0, float noundef %1) unnamed_addr #2 align 2 personality ptr @__gxx_personality_v0 {
  %3 = getelementptr inbounds nuw i8, ptr %0, i64 8
  %4 = load ptr, ptr %3, align 8, !tbaa !15
  %5 = load ptr, ptr %4, align 8, !tbaa !3
  %6 = getelementptr inbounds nuw i8, ptr %5, i64 40
  %7 = load ptr, ptr %6, align 8
  %8 = tail call noundef zeroext i1 %7(ptr noundef nonnull align 8 dereferenceable(8) %4) #25
  br i1 %8, label %_ZN19OpenColorIO_v2_5dev12_GLOBAL__N_118linearToPerceptualEf.exit, label %9

9:                                                ; preds = %2
  %10 = fcmp ugt float %1, 0.000000e+00
  br i1 %10, label %13, label %11

11:                                               ; preds = %9
  %12 = fmul float %1, 5.000000e-01
  br label %_ZN19OpenColorIO_v2_5dev12_GLOBAL__N_118linearToPerceptualEf.exit

13:                                               ; preds = %9
  %14 = fcmp ogt float %1, 0x3FC70A3D80000000
  br i1 %14, label %15, label %18

15:                                               ; preds = %13
  %16 = tail call float @llvm.log10.f32(float %1), !tbaa !17
  %17 = tail call float @llvm.fmuladd.f32(float %16, float 0x3FE19999A0000000, float 0x3FEAAF0400000000)
  br label %_ZN19OpenColorIO_v2_5dev12_GLOBAL__N_118linearToPerceptualEf.exit

18:                                               ; preds = %13
  %sqrtf.i5 = invoke float @sqrtf(float %1)
          to label %sqrtf.i.noexc unwind label %35

sqrtf.i.noexc:                                    ; preds = %18
  %abs.i = tail call float @llvm.fabs.f32(float %sqrtf.i5)
  br label %_ZN19OpenColorIO_v2_5dev12_GLOBAL__N_118linearToPerceptualEf.exit

_ZN19OpenColorIO_v2_5dev12_GLOBAL__N_118linearToPerceptualEf.exit: ; preds = %sqrtf.i.noexc, %15, %11, %2
  %19 = phi float [ %1, %2 ], [ %12, %11 ], [ %17, %15 ], [ %abs.i, %sqrtf.i.noexc ]
  %20 = load ptr, ptr %0, align 8, !tbaa !3
  %21 = getelementptr inbounds nuw i8, ptr %20, i64 8
  %22 = load ptr, ptr %21, align 8
  %23 = tail call noundef float %22(ptr noundef nonnull align 8 dereferenceable(24) %0) #25
  %24 = fsub float %19, %23
  %25 = load ptr, ptr %0, align 8, !tbaa !3
  %26 = getelementptr inbounds nuw i8, ptr %25, i64 24
  %27 = load ptr, ptr %26, align 8
  %28 = tail call noundef float %27(ptr noundef nonnull align 8 dereferenceable(24) %0) #25
  %29 = load ptr, ptr %0, align 8, !tbaa !3
  %30 = getelementptr inbounds nuw i8, ptr %29, i64 8
  %31 = load ptr, ptr %30, align 8
  %32 = tail call noundef float %31(ptr noundef nonnull align 8 dereferenceable(24) %0) #25
  %33 = fsub float %28, %32
  %34 = fdiv float %24, %33
  ret float %34

35:                                               ; preds = %18
  %36 = landingpad { ptr, i32 }
          catch ptr null
  %37 = extractvalue { ptr, i32 } %36, 0
  tail call void @__clang_call_terminate(ptr %37) #26
  unreachable
}